target datalayout = "e-m:e-p270:32:32-p271:32:32-p272:64:64-i64:64-i128:128-f80:128-n8:16:32:64-S128"
target triple = "x86_64-unknown-linux-gnu"

%struct.gpr_spinlock = type { i64 }
%"class.grpc_core::Executor" = type { ptr, ptr, i64, i64, %struct.gpr_spinlock }

@.str.2 = private unnamed_addr constant [118 x i8] c"generated/home/dtcxzyw/WorkSpace/Projects/compilers/llvm-opt-benchmark/bench/grpc/grpc/src/core/lib/iomgr/executor.cc\00", align 1
@_ZN9grpc_core12_GLOBAL__N_19executorsE = internal global [2 x ptr] zeroinitializer, align 16
@.str.25 = private unnamed_addr constant [44 x i8] c"executor_type < ExecutorType::NUM_EXECUTORS\00", align 1

; Function Attrs: mustprogress nounwind uwtable
define noundef zeroext i1 @_ZNK9grpc_core8Executor10IsThreadedEv(ptr noundef nonnull align 8 dereferenceable(40) %this) #6 align 2 {
entry:
  %this.addr = alloca ptr, align 8
  %atomic-temp = alloca i64, align 8
  store ptr %this, ptr %this.addr, align 8
  %this1 = load ptr, ptr %this.addr, align 8
  %num_threads_ = getelementptr inbounds %"class.grpc_core::Executor", ptr %this1, i32 0, i32 3
  %0 = load atomic i64, ptr %num_threads_ acquire, align 8
  store i64 %0, ptr %atomic-temp, align 8
  %1 = load i64, ptr %atomic-temp, align 8
  %cmp = icmp sgt i64 %1, 0
  ret i1 %cmp
}

; Function Attrs: mustprogress uwtable
define noundef zeroext i1 @_ZN9grpc_core8Executor10IsThreadedENS_12ExecutorTypeE(i32 noundef %executor_type) #4 align 2 {
entry:
  %executor_type.addr = alloca i32, align 4
  store i32 %executor_type, ptr %executor_type.addr, align 4
  br label %do.body

do.body:                                          ; preds = %entry
  %0 = load i32, ptr %executor_type.addr, align 4
  %cmp = icmp slt i32 %0, 2
  %lnot = xor i1 %cmp, true
  br i1 %lnot, label %if.then, label %if.end

if.then:                                          ; preds = %do.body
  call void @gpr_assertion_failed(ptr noundef @.str.2, i32 noundef 430, ptr noundef @.str.25) #14
  unreachable

if.end:                                           ; preds = %do.body
  br label %do.end

do.end:                                           ; preds = %if.end
  %1 = load i32, ptr %executor_type.addr, align 4
  %conv = sext i32 %1 to i64
  %arrayidx = getelementptr inbounds [2 x ptr], ptr @_ZN9grpc_core12_GLOBAL__N_19executorsE, i64 0, i64 %conv
  %2 = load ptr, ptr %arrayidx, align 8
  %call = call noundef zeroext i1 @_ZNK9grpc_core8Executor10IsThreadedEv(ptr noundef nonnull align 8 dereferenceable(40) %2)
  ret i1 %call
}