; Function Attrs: mustprogress uwtable
define noundef zeroext i1 @_ZN9grpc_core8Executor10IsThreadedENS_12ExecutorTypeE(i32 noundef %executor_type) local_unnamed_addr #3 align 2 {
entry:
  %cmp = icmp sgt i32 %executor_type, 1
  br i1 %cmp, label %if.then, label %do.end

if.then:                                          ; preds = %entry
  tail call void @gpr_assertion_failed(ptr noundef nonnull @.str.2, i32 noundef 430, ptr noundef nonnull @.str.25) #20
  unreachable

do.end:                                           ; preds = %entry
  %conv = sext i32 %executor_type to i64
  %arrayidx = getelementptr inbounds [2 x ptr], ptr @_ZN9grpc_core12_GLOBAL__N_19executorsE, i64 0, i64 %conv
  %0 = load ptr, ptr %arrayidx, align 8
  %num_threads_.i = getelementptr inbounds i8, ptr %0, i64 24
  %1 = load atomic i64, ptr %num_threads_.i acquire, align 8
  %cmp.i = icmp sgt i64 %1, 0
  ret i1 %cmp.i
}